target datalayout = "e-m:e-p270:32:32-p271:32:32-p272:64:64-i64:64-i128:128-f80:128-n8:16:32:64-S128"
target triple = "x86_64-pc-linux-gnu"

%struct._zval_struct = type { %union._zend_value, %union.anon, %union.anon.2 }
%union._zend_value = type { i64 }
%union.anon = type { i32 }
%union.anon.2 = type { i32 }
%struct._zend_array = type { %struct._zend_refcounted_h, %union.anon.4, i32, %union.anon.6, i32, i32, i32, i32, i64, ptr }
%struct._zend_refcounted_h = type { i32, %union.anon.3 }
%union.anon.3 = type { i32 }
%union.anon.4 = type { i32 }
%union.anon.6 = type { ptr }
%struct._sapi_globals_struct = type { ptr, %struct.sapi_request_info, %struct.sapi_headers_struct, i64, i8, i8, %struct.stat, ptr, ptr, ptr, i64, i32, i8, double, %struct._zend_array, %struct._zval_struct, %struct._zend_fcall_info_cache, %struct.sapi_request_parse_body_context }
%struct.sapi_request_info = type { ptr, ptr, ptr, i64, ptr, ptr, ptr, ptr, i8, i8, i8, ptr, ptr, ptr, ptr, ptr, ptr, ptr, i32, i32, ptr, i32 }
%struct.sapi_headers_struct = type { %struct._zend_llist, i32, i8, ptr, ptr }
%struct._zend_llist = type { ptr, ptr, i64, i64, ptr, i8, ptr }
%struct.stat = type { i64, i64, i64, i32, i32, i32, i32, i64, i64, i64, i64, %struct.timespec, %struct.timespec, %struct.timespec, [3 x i64] }
%struct.timespec = type { i64, i64 }
%struct._zend_fcall_info_cache = type { ptr, ptr, ptr, ptr, ptr }
%struct.sapi_request_parse_body_context = type { i8, [5 x %struct.anon.8] }
%struct.anon.8 = type { i8, i64 }
%struct.php_cli_server_client = type { ptr, i32, ptr, i32, ptr, %struct.php_http_parser, i8, ptr, ptr, i32, i64, %struct.php_cli_server_request, i8, %struct.php_cli_server_content_sender, i32 }
%struct.php_http_parser = type { i8, i8, i8, i8, i32, i64, i16, i16, i16, i8, i8, ptr }
%struct.php_cli_server_request = type { i32, i32, ptr, ptr, i64, ptr, i64, ptr, i64, ptr, i64, %struct._zend_array, %struct._zend_array, ptr, i64, ptr, i64, %struct.stat }
%struct.php_cli_server_content_sender = type { %struct.php_cli_server_buffer }
%struct.php_cli_server_buffer = type { ptr, ptr }

@sapi_globals = external global %struct._sapi_globals_struct, align 8

; Function Attrs: nounwind uwtable
define internal i64 @sapi_cli_server_read_post(ptr noundef %0, i64 noundef %1) #0 {
  %3 = alloca i64, align 8
  %4 = alloca ptr, align 8
  %5 = alloca i64, align 8
  %6 = alloca ptr, align 8
  %7 = alloca i64, align 8
  %8 = alloca i64, align 8
  %9 = alloca i32, align 4
  store ptr %0, ptr %4, align 8, !tbaa !67
  store i64 %1, ptr %5, align 8, !tbaa !68
  call void @llvm.lifetime.start.p0(i64 8, ptr %6) #20
  %10 = load ptr, ptr @sapi_globals, align 8, !tbaa !45
  store ptr %10, ptr %6, align 8, !tbaa !60
  %11 = load ptr, ptr %6, align 8, !tbaa !60
  %12 = getelementptr inbounds nuw %struct.php_cli_server_client, ptr %11, i32 0, i32 11
  %13 = getelementptr inbounds nuw %struct.php_cli_server_request, ptr %12, i32 0, i32 13
  %14 = load ptr, ptr %13, align 8, !tbaa !93
  %15 = icmp ne ptr %14, null
  br i1 %15, label %16, label %58

16:                                               ; preds = %2
  call void @llvm.lifetime.start.p0(i64 8, ptr %7) #20
  %17 = load ptr, ptr %6, align 8, !tbaa !60
  %18 = getelementptr inbounds nuw %struct.php_cli_server_client, ptr %17, i32 0, i32 11
  %19 = getelementptr inbounds nuw %struct.php_cli_server_request, ptr %18, i32 0, i32 14
  %20 = load i64, ptr %19, align 8, !tbaa !94
  store i64 %20, ptr %7, align 8, !tbaa !68
  call void @llvm.lifetime.start.p0(i64 8, ptr %8) #20
  %21 = load ptr, ptr %6, align 8, !tbaa !60
  %22 = getelementptr inbounds nuw %struct.php_cli_server_client, ptr %21, i32 0, i32 10
  %23 = load i64, ptr %22, align 8, !tbaa !95
  %24 = load i64, ptr %5, align 8, !tbaa !68
  %25 = add i64 %23, %24
  %26 = load i64, ptr %7, align 8, !tbaa !68
  %27 = icmp ult i64 %25, %26
  br i1 %27, label %28, label %34

28:                                               ; preds = %16
  %29 = load ptr, ptr %6, align 8, !tbaa !60
  %30 = getelementptr inbounds nuw %struct.php_cli_server_client, ptr %29, i32 0, i32 10
  %31 = load i64, ptr %30, align 8, !tbaa !95
  %32 = load i64, ptr %5, align 8, !tbaa !68
  %33 = add i64 %31, %32
  br label %36

34:                                               ; preds = %16
  %35 = load i64, ptr %7, align 8, !tbaa !68
  br label %36

36:                                               ; preds = %34, %28
  %37 = phi i64 [ %33, %28 ], [ %35, %34 ]
  %38 = load ptr, ptr %6, align 8, !tbaa !60
  %39 = getelementptr inbounds nuw %struct.php_cli_server_client, ptr %38, i32 0, i32 10
  %40 = load i64, ptr %39, align 8, !tbaa !95
  %41 = sub i64 %37, %40
  store i64 %41, ptr %8, align 8, !tbaa !68
  %42 = load ptr, ptr %4, align 8, !tbaa !67
  %43 = load ptr, ptr %6, align 8, !tbaa !60
  %44 = getelementptr inbounds nuw %struct.php_cli_server_client, ptr %43, i32 0, i32 11
  %45 = getelementptr inbounds nuw %struct.php_cli_server_request, ptr %44, i32 0, i32 13
  %46 = load ptr, ptr %45, align 8, !tbaa !93
  %47 = load ptr, ptr %6, align 8, !tbaa !60
  %48 = getelementptr inbounds nuw %struct.php_cli_server_client, ptr %47, i32 0, i32 10
  %49 = load i64, ptr %48, align 8, !tbaa !95
  %50 = getelementptr inbounds nuw i8, ptr %46, i64 %49
  %51 = load i64, ptr %8, align 8, !tbaa !68
  call void @llvm.memmove.p0.p0.i64(ptr align 1 %42, ptr align 1 %50, i64 %51, i1 false)
  %52 = load i64, ptr %8, align 8, !tbaa !68
  %53 = load ptr, ptr %6, align 8, !tbaa !60
  %54 = getelementptr inbounds nuw %struct.php_cli_server_client, ptr %53, i32 0, i32 10
  %55 = load i64, ptr %54, align 8, !tbaa !95
  %56 = add i64 %55, %52
  store i64 %56, ptr %54, align 8, !tbaa !95
  %57 = load i64, ptr %8, align 8, !tbaa !68
  store i64 %57, ptr %3, align 8
  store i32 1, ptr %9, align 4
  call void @llvm.lifetime.end.p0(i64 8, ptr %8) #20
  call void @llvm.lifetime.end.p0(i64 8, ptr %7) #20
  br label %59

58:                                               ; preds = %2
  store i64 0, ptr %3, align 8
  store i32 1, ptr %9, align 4
  br label %59

59:                                               ; preds = %58, %36
  call void @llvm.lifetime.end.p0(i64 8, ptr %6) #20
  %60 = load i64, ptr %3, align 8
  ret i64 %60
}