; Function Attrs: mustprogress nofree norecurse nosync nounwind willreturn memory(readwrite, inaccessiblemem: none) uwtable
define internal i64 @sapi_cli_server_read_post(ptr noundef writeonly captures(none) %0, i64 noundef %1) #4 {
  %3 = load ptr, ptr @sapi_globals, align 8, !tbaa !44
  %4 = getelementptr inbounds nuw i8, ptr %3, i64 304
  %5 = load ptr, ptr %4, align 8, !tbaa !92
  %.not = icmp eq ptr %5, null
  br i1 %.not, label %16, label %6

6:                                                ; preds = %2
  %7 = getelementptr inbounds nuw i8, ptr %3, i64 312
  %8 = load i64, ptr %7, align 8, !tbaa !93
  %9 = getelementptr inbounds nuw i8, ptr %3, i64 104
  %10 = load i64, ptr %9, align 8, !tbaa !94
  %11 = add i64 %10, %1
  %. = tail call i64 @llvm.umin.i64(i64 %11, i64 %8)
  %12 = sub i64 %., %10
  %13 = getelementptr inbounds nuw i8, ptr %5, i64 %10
  tail call void @llvm.memmove.p0.p0.i64(ptr align 1 %0, ptr nonnull align 1 %13, i64 %12, i1 false)
  %14 = load i64, ptr %9, align 8, !tbaa !94
  %15 = add i64 %12, %14
  store i64 %15, ptr %9, align 8, !tbaa !94
  br label %16

16:                                               ; preds = %2, %6
  %.0 = phi i64 [ %12, %6 ], [ 0, %2 ]
  ret i64 %.0
}